target datalayout = "e-m:e-p270:32:32-p271:32:32-p272:64:64-i64:64-i128:128-f80:128-n8:16:32:64-S128"
target triple = "x86_64-pc-linux-gnu"

%struct.cache_time = type { i32, i32 }
%struct.object_id = type { [32 x i8], i32 }
%struct.index_state = type { ptr, i32, i32, i32, i32, ptr, ptr, ptr, %struct.cache_time, i8, i32, %struct.hashmap, %struct.hashmap, %struct.object_id, ptr, ptr, ptr, ptr, ptr, ptr, ptr }
%struct.hashmap = type { ptr, ptr, ptr, i32, i32, i32, i32, i8 }
%struct.pattern_list = type { i32, i32, ptr, ptr, i32, i32, %struct.hashmap, %struct.hashmap }

@.str.2 = private unnamed_addr constant [1 x i8] zeroinitializer, align 1
@core_apply_sparse_checkout = external global i32, align 4
@.str.17 = private unnamed_addr constant [21 x i8] c"info/sparse-checkout\00", align 1
@core_sparse_checkout_cone = external global i32, align 4

; Function Attrs: nounwind uwtable
define dso_local i32 @add_patterns_from_file_to_list(ptr noundef %0, ptr noundef %1, i32 noundef %2, ptr noundef %3, ptr noundef %4, i32 noundef %5) #0 {
  %7 = alloca ptr, align 8
  %8 = alloca ptr, align 8
  %9 = alloca i32, align 4
  %10 = alloca ptr, align 8
  %11 = alloca ptr, align 8
  %12 = alloca i32, align 4
  store ptr %0, ptr %7, align 8, !tbaa !13
  store ptr %1, ptr %8, align 8, !tbaa !13
  store i32 %2, ptr %9, align 4, !tbaa !16
  store ptr %3, ptr %10, align 8, !tbaa !123
  store ptr %4, ptr %11, align 8, !tbaa !41
  store i32 %5, ptr %12, align 4, !tbaa !16
  %13 = load ptr, ptr %7, align 8, !tbaa !13
  %14 = load ptr, ptr %8, align 8, !tbaa !13
  %15 = load i32, ptr %9, align 4, !tbaa !16
  %16 = load ptr, ptr %10, align 8, !tbaa !123
  %17 = load ptr, ptr %11, align 8, !tbaa !41
  %18 = load i32, ptr %12, align 4, !tbaa !16
  %19 = call i32 @add_patterns(ptr noundef %13, ptr noundef %14, i32 noundef %15, ptr noundef %16, ptr noundef %17, i32 noundef %18, ptr noundef null)
  ret i32 %19
}

; Function Attrs: nounwind uwtable
define dso_local ptr @get_sparse_checkout_filename() #0 {
  %1 = call ptr (ptr, ...) @git_pathdup(ptr noundef @.str.17)
  ret ptr %1
}

; Function Attrs: nounwind uwtable
define dso_local i32 @get_sparse_checkout_patterns(ptr noundef %0) #0 {
  %2 = alloca ptr, align 8
  %3 = alloca i32, align 4
  %4 = alloca ptr, align 8
  store ptr %0, ptr %2, align 8, !tbaa !123
  call void @llvm.lifetime.start.p0(i64 4, ptr %3) #12
  call void @llvm.lifetime.start.p0(i64 8, ptr %4) #12
  %5 = call ptr @get_sparse_checkout_filename()
  store ptr %5, ptr %4, align 8, !tbaa !13
  %6 = load i32, ptr @core_sparse_checkout_cone, align 4, !tbaa !16
  %7 = load ptr, ptr %2, align 8, !tbaa !123
  %8 = getelementptr inbounds nuw %struct.pattern_list, ptr %7, i32 0, i32 4
  store i32 %6, ptr %8, align 8, !tbaa !130
  %9 = load ptr, ptr %4, align 8, !tbaa !13
  %10 = load ptr, ptr %2, align 8, !tbaa !123
  %11 = call i32 @add_patterns_from_file_to_list(ptr noundef %9, ptr noundef @.str.2, i32 noundef 0, ptr noundef %10, ptr noundef null, i32 noundef 0)
  store i32 %11, ptr %3, align 4, !tbaa !16
  %12 = load ptr, ptr %4, align 8, !tbaa !13
  call void @free(ptr noundef %12) #12
  %13 = load i32, ptr %3, align 4, !tbaa !16
  call void @llvm.lifetime.end.p0(i64 8, ptr %4) #12
  call void @llvm.lifetime.end.p0(i64 4, ptr %3) #12
  ret i32 %13
}

; Function Attrs: nounwind uwtable
define dso_local i32 @init_sparse_checkout_patterns(ptr noundef %0) #0 {
  %2 = alloca i32, align 4
  %3 = alloca ptr, align 8
  store ptr %0, ptr %3, align 8, !tbaa !41
  %4 = load i32, ptr @core_apply_sparse_checkout, align 4, !tbaa !16
  %5 = icmp ne i32 %4, 0
  br i1 %5, label %7, label %6

6:                                                ; preds = %1
  store i32 1, ptr %2, align 4
  br label %31

7:                                                ; preds = %1
  %8 = load ptr, ptr %3, align 8, !tbaa !41
  %9 = getelementptr inbounds nuw %struct.index_state, ptr %8, i32 0, i32 20
  %10 = load ptr, ptr %9, align 8, !tbaa !162
  %11 = icmp ne ptr %10, null
  br i1 %11, label %12, label %13

12:                                               ; preds = %7
  store i32 0, ptr %2, align 4
  br label %31

13:                                               ; preds = %7
  %14 = call ptr @xcalloc(i64 noundef 1, i64 noundef 128)
  %15 = load ptr, ptr %3, align 8, !tbaa !41
  %16 = getelementptr inbounds nuw %struct.index_state, ptr %15, i32 0, i32 20
  store ptr %14, ptr %16, align 8, !tbaa !162
  %17 = load ptr, ptr %3, align 8, !tbaa !41
  %18 = getelementptr inbounds nuw %struct.index_state, ptr %17, i32 0, i32 20
  %19 = load ptr, ptr %18, align 8, !tbaa !162
  %20 = call i32 @get_sparse_checkout_patterns(ptr noundef %19)
  %21 = icmp slt i32 %20, 0
  br i1 %21, label %22, label %30

22:                                               ; preds = %13
  br label %23

23:                                               ; preds = %22
  %24 = load ptr, ptr %3, align 8, !tbaa !41
  %25 = getelementptr inbounds nuw %struct.index_state, ptr %24, i32 0, i32 20
  %26 = load ptr, ptr %25, align 8, !tbaa !162
  call void @free(ptr noundef %26) #12
  %27 = load ptr, ptr %3, align 8, !tbaa !41
  %28 = getelementptr inbounds nuw %struct.index_state, ptr %27, i32 0, i32 20
  store ptr null, ptr %28, align 8, !tbaa !162
  br label %29

29:                                               ; preds = %23
  store i32 -1, ptr %2, align 4
  br label %31

30:                                               ; preds = %13
  store i32 0, ptr %2, align 4
  br label %31

31:                                               ; preds = %30, %29, %12, %6
  %32 = load i32, ptr %2, align 4
  ret i32 %32
}