; Function Attrs: nounwind uwtable
define dso_local range(i32 -1, 2) i32 @init_sparse_checkout_patterns(ptr noundef captures(none) %0) local_unnamed_addr #0 {
  %2 = load i32, ptr @core_apply_sparse_checkout, align 4, !tbaa !10
  %.not = icmp eq i32 %2, 0
  br i1 %.not, label %15, label %3

3:                                                ; preds = %1
  %4 = getelementptr inbounds nuw i8, ptr %0, i64 248
  %5 = load ptr, ptr %4, align 8, !tbaa !145
  %.not5 = icmp eq ptr %5, null
  br i1 %.not5, label %6, label %15

6:                                                ; preds = %3
  %7 = tail call ptr @xcalloc(i64 noundef 1, i64 noundef 128) #27
  store ptr %7, ptr %4, align 8, !tbaa !145
  %8 = tail call ptr (ptr, ...) @git_pathdup(ptr noundef nonnull @.str.17)
  %9 = load i32, ptr @core_sparse_checkout_cone, align 4, !tbaa !10
  %10 = getelementptr inbounds nuw i8, ptr %7, i64 24
  store i32 %9, ptr %10, align 8, !tbaa !120
  %11 = tail call fastcc range(i32 -1, 1) i32 @add_patterns(ptr noundef %8, ptr noundef nonnull @.str.2, i32 noundef 0, ptr noundef %7, ptr noundef null, i32 noundef 0, ptr noundef null)
  tail call void @free(ptr noundef %8) #27
  %12 = icmp slt i32 %11, 0
  br i1 %12, label %13, label %15

13:                                               ; preds = %6
  %14 = load ptr, ptr %4, align 8, !tbaa !145
  tail call void @free(ptr noundef %14) #27
  store ptr null, ptr %4, align 8, !tbaa !145
  br label %15

15:                                               ; preds = %6, %3, %1, %13
  %.0 = phi i32 [ -1, %13 ], [ 1, %1 ], [ 0, %3 ], [ 0, %6 ]
  ret i32 %.0
}